target datalayout = "e-m:e-p270:32:32-p271:32:32-p272:64:64-i64:64-i128:128-f80:128-n8:16:32:64-S128"
target triple = "x86_64-unknown-linux-gnu"

%"class.Imf_3_2::Pxr24Compressor" = type <{ %"class.Imf_3_2::Compressor", i32, i32, ptr, ptr, ptr, i32, i32, i32, [4 x i8] }>
%"class.Imf_3_2::Compressor" = type { ptr, ptr }
%"class.Imath_3_2::Box" = type { %"class.Imath_3_2::Vec2", %"class.Imath_3_2::Vec2" }
%"class.Imath_3_2::Vec2" = type { i32, i32 }

@.str.4 = private unnamed_addr constant [33 x i8] c"Integer multiplication overflow.\00", align 1
@_ZTIN7Iex_3_211OverflowExcE = external constant ptr

; Function Attrs: mustprogress nounwind uwtable
define linkonce_odr hidden noundef i64 @_ZNSt14numeric_limitsImE3maxEv() #6 comdat align 2 {
entry:
  ret i64 -1
}

; Function Attrs: mustprogress uwtable
define linkonce_odr hidden noundef i64 @_ZN7Imf_3_26uiMultImEET_S1_S1_(i64 noundef %a, i64 noundef %b) #4 comdat personality ptr @__gxx_personality_v0 {
entry:
  %a.addr = alloca i64, align 8
  %b.addr = alloca i64, align 8
  %exn.slot = alloca ptr, align 8
  %ehselector.slot = alloca i32, align 4
  store i64 %a, ptr %a.addr, align 8
  store i64 %b, ptr %b.addr, align 8
  br label %do.body

do.body:                                          ; preds = %entry
  br label %do.end

do.end:                                           ; preds = %do.body
  %0 = load i64, ptr %a.addr, align 8
  %cmp = icmp ugt i64 %0, 0
  br i1 %cmp, label %land.lhs.true, label %if.end

land.lhs.true:                                    ; preds = %do.end
  %1 = load i64, ptr %b.addr, align 8
  %call = call noundef i64 @_ZNSt14numeric_limitsImE3maxEv() #3
  %2 = load i64, ptr %a.addr, align 8
  %div = udiv i64 %call, %2
  %cmp1 = icmp ugt i64 %1, %div
  br i1 %cmp1, label %if.then, label %if.end

if.then:                                          ; preds = %land.lhs.true
  %exception = call ptr @__cxa_allocate_exception(i64 72) #3
  invoke void @_ZN7Iex_3_211OverflowExcC1EPKc(ptr noundef nonnull align 8 dereferenceable(72) %exception, ptr noundef @.str.4)
          to label %invoke.cont unwind label %lpad

invoke.cont:                                      ; preds = %if.then
  call void @__cxa_throw(ptr %exception, ptr @_ZTIN7Iex_3_211OverflowExcE, ptr @_ZN7Iex_3_211OverflowExcD1Ev) #12
  unreachable

lpad:                                             ; preds = %if.then
  %3 = landingpad { ptr, i32 }
          cleanup
  %4 = extractvalue { ptr, i32 } %3, 0
  store ptr %4, ptr %exn.slot, align 8
  %5 = extractvalue { ptr, i32 } %3, 1
  store i32 %5, ptr %ehselector.slot, align 4
  call void @__cxa_free_exception(ptr %exception) #3
  br label %eh.resume

if.end:                                           ; preds = %land.lhs.true, %do.end
  %6 = load i64, ptr %a.addr, align 8
  %7 = load i64, ptr %b.addr, align 8
  %mul = mul i64 %6, %7
  ret i64 %mul

eh.resume:                                        ; preds = %lpad
  %exn = load ptr, ptr %exn.slot, align 8
  %sel = load i32, ptr %ehselector.slot, align 4
  %lpad.val = insertvalue { ptr, i32 } poison, ptr %exn, 0
  %lpad.val2 = insertvalue { ptr, i32 } %lpad.val, i32 %sel, 1
  resume { ptr, i32 } %lpad.val2
}

; Function Attrs: mustprogress uwtable
define hidden void @_ZN7Imf_3_215Pxr24CompressorC2ERKNS_6HeaderEmm(ptr noundef nonnull align 8 dereferenceable(60) %this, ptr noundef nonnull align 8 dereferenceable(49) %hdr, i64 noundef %maxScanLineSize, i64 noundef %numScanLines) unnamed_addr #4 align 2 personality ptr @__gxx_personality_v0 {
entry:
  %this.addr = alloca ptr, align 8
  %hdr.addr = alloca ptr, align 8
  %maxScanLineSize.addr = alloca i64, align 8
  %numScanLines.addr = alloca i64, align 8
  %exn.slot = alloca ptr, align 8
  %ehselector.slot = alloca i32, align 4
  %maxInBytes = alloca i64, align 8
  %maxOutBytes = alloca i64, align 8
  %dataWindow = alloca ptr, align 8
  store ptr %this, ptr %this.addr, align 8
  store ptr %hdr, ptr %hdr.addr, align 8
  store i64 %maxScanLineSize, ptr %maxScanLineSize.addr, align 8
  store i64 %numScanLines, ptr %numScanLines.addr, align 8
  %this1 = load ptr, ptr %this.addr, align 8
  %0 = load ptr, ptr %hdr.addr, align 8
  call void @_ZN7Imf_3_210CompressorC2ERKNS_6HeaderE(ptr noundef nonnull align 8 dereferenceable(16) %this1, ptr noundef nonnull align 8 dereferenceable(49) %0)
  store ptr getelementptr inbounds ({ [10 x ptr] }, ptr @_ZTVN7Imf_3_215Pxr24CompressorE, i32 0, i32 0, i32 2), ptr %this1, align 8
  %_maxScanLineSize = getelementptr inbounds %"class.Imf_3_2::Pxr24Compressor", ptr %this1, i32 0, i32 1
  %1 = load i64, ptr %maxScanLineSize.addr, align 8
  %conv = trunc i64 %1 to i32
  store i32 %conv, ptr %_maxScanLineSize, align 8
  %_numScanLines = getelementptr inbounds %"class.Imf_3_2::Pxr24Compressor", ptr %this1, i32 0, i32 2
  %2 = load i64, ptr %numScanLines.addr, align 8
  %conv2 = trunc i64 %2 to i32
  store i32 %conv2, ptr %_numScanLines, align 4
  %_tmpBuffer = getelementptr inbounds %"class.Imf_3_2::Pxr24Compressor", ptr %this1, i32 0, i32 3
  store ptr null, ptr %_tmpBuffer, align 8
  %_outBuffer = getelementptr inbounds %"class.Imf_3_2::Pxr24Compressor", ptr %this1, i32 0, i32 4
  store ptr null, ptr %_outBuffer, align 8
  %_channels = getelementptr inbounds %"class.Imf_3_2::Pxr24Compressor", ptr %this1, i32 0, i32 5
  %3 = load ptr, ptr %hdr.addr, align 8
  %call = invoke noundef nonnull align 8 dereferenceable(48) ptr @_ZNK7Imf_3_26Header8channelsEv(ptr noundef nonnull align 8 dereferenceable(49) %3)
          to label %invoke.cont unwind label %lpad

invoke.cont:                                      ; preds = %entry
  store ptr %call, ptr %_channels, align 8
  %4 = load i64, ptr %maxScanLineSize.addr, align 8
  %5 = load i64, ptr %numScanLines.addr, align 8
  %call4 = invoke noundef i64 @_ZN7Imf_3_26uiMultImEET_S1_S1_(i64 noundef %4, i64 noundef %5)
          to label %invoke.cont3 unwind label %lpad

invoke.cont3:                                     ; preds = %invoke.cont
  store i64 %call4, ptr %maxInBytes, align 8
  %6 = load i64, ptr %maxInBytes, align 8
  %call6 = invoke i64 @exr_compress_max_buffer_size(i64 noundef %6)
          to label %invoke.cont5 unwind label %lpad

invoke.cont5:                                     ; preds = %invoke.cont3
  store i64 %call6, ptr %maxOutBytes, align 8
  %7 = load i64, ptr %maxInBytes, align 8
  %call8 = invoke noalias noundef nonnull ptr @_Znam(i64 noundef %7) #11
          to label %invoke.cont7 unwind label %lpad

invoke.cont7:                                     ; preds = %invoke.cont5
  %_tmpBuffer9 = getelementptr inbounds %"class.Imf_3_2::Pxr24Compressor", ptr %this1, i32 0, i32 3
  store ptr %call8, ptr %_tmpBuffer9, align 8
  %8 = load i64, ptr %maxOutBytes, align 8
  %call11 = invoke noalias noundef nonnull ptr @_Znam(i64 noundef %8) #11
          to label %invoke.cont10 unwind label %lpad

invoke.cont10:                                    ; preds = %invoke.cont7
  %_outBuffer12 = getelementptr inbounds %"class.Imf_3_2::Pxr24Compressor", ptr %this1, i32 0, i32 4
  store ptr %call11, ptr %_outBuffer12, align 8
  %9 = load ptr, ptr %hdr.addr, align 8
  %call14 = invoke noundef nonnull align 4 dereferenceable(16) ptr @_ZNK7Imf_3_26Header10dataWindowEv(ptr noundef nonnull align 8 dereferenceable(49) %9)
          to label %invoke.cont13 unwind label %lpad

invoke.cont13:                                    ; preds = %invoke.cont10
  store ptr %call14, ptr %dataWindow, align 8
  %10 = load ptr, ptr %dataWindow, align 8
  %min = getelementptr inbounds %"class.Imath_3_2::Box", ptr %10, i32 0, i32 0
  %x = getelementptr inbounds %"class.Imath_3_2::Vec2", ptr %min, i32 0, i32 0
  %11 = load i32, ptr %x, align 4
  %_minX = getelementptr inbounds %"class.Imf_3_2::Pxr24Compressor", ptr %this1, i32 0, i32 6
  store i32 %11, ptr %_minX, align 8
  %12 = load ptr, ptr %dataWindow, align 8
  %max = getelementptr inbounds %"class.Imath_3_2::Box", ptr %12, i32 0, i32 1
  %x15 = getelementptr inbounds %"class.Imath_3_2::Vec2", ptr %max, i32 0, i32 0
  %13 = load i32, ptr %x15, align 4
  %_maxX = getelementptr inbounds %"class.Imf_3_2::Pxr24Compressor", ptr %this1, i32 0, i32 7
  store i32 %13, ptr %_maxX, align 4
  %14 = load ptr, ptr %dataWindow, align 8
  %max16 = getelementptr inbounds %"class.Imath_3_2::Box", ptr %14, i32 0, i32 1
  %y = getelementptr inbounds %"class.Imath_3_2::Vec2", ptr %max16, i32 0, i32 1
  %15 = load i32, ptr %y, align 4
  %_maxY = getelementptr inbounds %"class.Imf_3_2::Pxr24Compressor", ptr %this1, i32 0, i32 8
  store i32 %15, ptr %_maxY, align 8
  ret void

lpad:                                             ; preds = %invoke.cont10, %invoke.cont7, %invoke.cont5, %invoke.cont3, %invoke.cont, %entry
  %16 = landingpad { ptr, i32 }
          cleanup
  %17 = extractvalue { ptr, i32 } %16, 0
  store ptr %17, ptr %exn.slot, align 8
  %18 = extractvalue { ptr, i32 } %16, 1
  store i32 %18, ptr %ehselector.slot, align 4
  call void @_ZN7Imf_3_210CompressorD2Ev(ptr noundef nonnull align 8 dereferenceable(16) %this1) #3
  br label %eh.resume

eh.resume:                                        ; preds = %lpad
  %exn = load ptr, ptr %exn.slot, align 8
  %sel = load i32, ptr %ehselector.slot, align 4
  %lpad.val = insertvalue { ptr, i32 } poison, ptr %exn, 0
  %lpad.val17 = insertvalue { ptr, i32 } %lpad.val, i32 %sel, 1
  resume { ptr, i32 } %lpad.val17
}