; Function Attrs: mustprogress uwtable
define hidden void @_ZN7Imf_3_215Pxr24CompressorC2ERKNS_6HeaderEmm(ptr noundef nonnull align 8 dereferenceable(60) %this, ptr noundef nonnull align 8 dereferenceable(49) %hdr, i64 noundef %maxScanLineSize, i64 noundef %numScanLines) unnamed_addr #3 align 2 personality ptr @__gxx_personality_v0 {
entry:
  tail call void @_ZN7Imf_3_210CompressorC2ERKNS_6HeaderE(ptr noundef nonnull align 8 dereferenceable(16) %this, ptr noundef nonnull align 8 dereferenceable(49) %hdr)
  store ptr getelementptr inbounds ({ [10 x ptr] }, ptr @_ZTVN7Imf_3_215Pxr24CompressorE, i64 0, i32 0, i64 2), ptr %this, align 8
  %_maxScanLineSize = getelementptr inbounds i8, ptr %this, i64 16
  %conv = trunc i64 %maxScanLineSize to i32
  store i32 %conv, ptr %_maxScanLineSize, align 8
  %_numScanLines = getelementptr inbounds i8, ptr %this, i64 20
  %conv2 = trunc i64 %numScanLines to i32
  store i32 %conv2, ptr %_numScanLines, align 4
  %_tmpBuffer = getelementptr inbounds i8, ptr %this, i64 24
  %_outBuffer = getelementptr inbounds i8, ptr %this, i64 32
  tail call void @llvm.memset.p0.i64(ptr noundef nonnull align 8 dereferenceable(16) %_tmpBuffer, i8 0, i64 16, i1 false)
  %call = invoke noundef nonnull align 8 dereferenceable(48) ptr @_ZNK7Imf_3_26Header8channelsEv(ptr noundef nonnull align 8 dereferenceable(49) %hdr)
          to label %invoke.cont unwind label %lpad

invoke.cont:                                      ; preds = %entry
  %_channels = getelementptr inbounds i8, ptr %this, i64 40
  store ptr %call, ptr %_channels, align 8
  %cmp.not.i = icmp eq i64 %maxScanLineSize, 0
  br i1 %cmp.not.i, label %invoke.cont3, label %land.lhs.true.i

land.lhs.true.i:                                  ; preds = %invoke.cont
  %mul4.i = tail call { i64, i1 } @llvm.umul.with.overflow.i64(i64 %maxScanLineSize, i64 %numScanLines)
  %mul.ov.i = extractvalue { i64, i1 } %mul4.i, 1
  br i1 %mul.ov.i, label %if.then.i, label %invoke.cont3

if.then.i:                                        ; preds = %land.lhs.true.i
  %exception.i = tail call ptr @__cxa_allocate_exception(i64 72) #13
  invoke void @_ZN7Iex_3_211OverflowExcC1EPKc(ptr noundef nonnull align 8 dereferenceable(72) %exception.i, ptr noundef nonnull @.str.4)
          to label %invoke.cont.i unwind label %lpad.i

invoke.cont.i:                                    ; preds = %if.then.i
  invoke void @__cxa_throw(ptr nonnull %exception.i, ptr nonnull @_ZTIN7Iex_3_211OverflowExcE, ptr nonnull @_ZN7Iex_3_211OverflowExcD1Ev) #14
          to label %.noexc unwind label %lpad

.noexc:                                           ; preds = %invoke.cont.i
  unreachable

lpad.i:                                           ; preds = %if.then.i
  %0 = landingpad { ptr, i32 }
          cleanup
  tail call void @__cxa_free_exception(ptr %exception.i) #13
  br label %lpad.body

invoke.cont3:                                     ; preds = %land.lhs.true.i, %invoke.cont
  %mul.i = mul i64 %numScanLines, %maxScanLineSize
  %call6 = invoke i64 @exr_compress_max_buffer_size(i64 noundef %mul.i)
          to label %invoke.cont5 unwind label %lpad

invoke.cont5:                                     ; preds = %invoke.cont3
  %call8 = invoke noalias noundef nonnull ptr @_Znam(i64 noundef %mul.i) #15
          to label %invoke.cont7 unwind label %lpad

invoke.cont7:                                     ; preds = %invoke.cont5
  store ptr %call8, ptr %_tmpBuffer, align 8
  %call11 = invoke noalias noundef nonnull ptr @_Znam(i64 noundef %call6) #15
          to label %invoke.cont10 unwind label %lpad

invoke.cont10:                                    ; preds = %invoke.cont7
  store ptr %call11, ptr %_outBuffer, align 8
  %call14 = invoke noundef nonnull align 4 dereferenceable(16) ptr @_ZNK7Imf_3_26Header10dataWindowEv(ptr noundef nonnull align 8 dereferenceable(49) %hdr)
          to label %invoke.cont13 unwind label %lpad

invoke.cont13:                                    ; preds = %invoke.cont10
  %1 = load i32, ptr %call14, align 4
  %_minX = getelementptr inbounds i8, ptr %this, i64 48
  store i32 %1, ptr %_minX, align 8
  %max = getelementptr inbounds i8, ptr %call14, i64 8
  %2 = load i32, ptr %max, align 4
  %_maxX = getelementptr inbounds i8, ptr %this, i64 52
  store i32 %2, ptr %_maxX, align 4
  %y = getelementptr inbounds i8, ptr %call14, i64 12
  %3 = load i32, ptr %y, align 4
  %_maxY = getelementptr inbounds i8, ptr %this, i64 56
  store i32 %3, ptr %_maxY, align 8
  ret void

lpad:                                             ; preds = %invoke.cont.i, %invoke.cont10, %invoke.cont7, %invoke.cont5, %invoke.cont3, %entry
  %4 = landingpad { ptr, i32 }
          cleanup
  br label %lpad.body

lpad.body:                                        ; preds = %lpad.i, %lpad
  %eh.lpad-body = phi { ptr, i32 } [ %4, %lpad ], [ %0, %lpad.i ]
  tail call void @_ZN7Imf_3_210CompressorD2Ev(ptr noundef nonnull align 8 dereferenceable(16) %this) #13
  resume { ptr, i32 } %eh.lpad-body
}